target datalayout = "e-m:e-p270:32:32-p271:32:32-p272:64:64-i64:64-i128:128-f80:128-n8:16:32:64-S128"
target triple = "x86_64-pc-linux-gnu"

%"class.StringDedup::Table::Bucket" = type { %class.GrowableArrayCHeap, %class.GrowableArrayCHeap.0 }
%class.GrowableArrayCHeap = type { %class.GrowableArrayWithAllocator }
%class.GrowableArrayWithAllocator = type { %class.GrowableArrayView }
%class.GrowableArrayView = type { %class.GrowableArrayBase, ptr }
%class.GrowableArrayBase = type { i32, i32 }
%class.GrowableArrayCHeap.0 = type { %class.GrowableArrayWithAllocator.1 }
%class.GrowableArrayWithAllocator.1 = type { %class.GrowableArrayView.2 }
%class.GrowableArrayView.2 = type { %class.GrowableArrayBase, ptr }
%class.WeakHandle = type { ptr }
%class.GrowableArrayIterator = type <{ ptr, i32, [4 x i8] }>
%class.GrowableArrayIterator.3 = type <{ ptr, i32, [4 x i8] }>

@g_assert_poison = external global ptr, align 8
@.str = private unnamed_addr constant [61 x i8] c"src/hotspot/share/gc/shared/stringdedup/stringDedupTable.cpp\00", align 1
@.str.4 = private unnamed_addr constant [50 x i8] c"guarantee(entry_count == _values.length()) failed\00", align 1
@.str.5 = private unnamed_addr constant [40 x i8] c"hash/value length mismatch: %zu: %d, %d\00", align 1
@.str.6 = private unnamed_addr constant [45 x i8] c"guarantee(bucket_index == hash_index) failed\00", align 1
@.str.7 = private unnamed_addr constant [31 x i8] c"entry in wrong bucket: %zu, %u\00", align 1
@.str.8 = private unnamed_addr constant [33 x i8] c"guarantee(!tv.is_empty()) failed\00", align 1
@.str.9 = private unnamed_addr constant [29 x i8] c"entry missing value: %zu:%zu\00", align 1
@_ZN11StringDedup5Table14_table_storageE = hidden global ptr null, align 8
@.str.10 = private unnamed_addr constant [56 x i8] c"guarantee(OopStorage::ALLOCATED_ENTRY == status) failed\00", align 1
@.str.11 = private unnamed_addr constant [31 x i8] c"bad value: %zu:%zu -> 0x%016lx\00", align 1

; Function Attrs: mustprogress nounwind uwtable
define linkonce_odr hidden noundef nonnull align 8 dereferenceable(8) ptr @_ZNK17GrowableArrayViewI10WeakHandleE2atEi(ptr noundef nonnull align 8 dereferenceable(16) %0, i32 noundef %1) #1 comdat align 2 {
  %3 = alloca ptr, align 8
  %4 = alloca i32, align 4
  store ptr %0, ptr %3, align 8
  store i32 %1, ptr %4, align 4
  %5 = load ptr, ptr %3, align 8
  %6 = getelementptr inbounds %class.GrowableArrayView.2, ptr %5, i32 0, i32 1
  %7 = load ptr, ptr %6, align 8
  %8 = load i32, ptr %4, align 4
  %9 = sext i32 %8 to i64
  %10 = getelementptr inbounds %class.WeakHandle, ptr %7, i64 %9
  ret ptr %10
}

; Function Attrs: mustprogress nounwind uwtable
define linkonce_odr hidden void @_ZN21GrowableArrayIteratorI10WeakHandleEC2EPK17GrowableArrayViewIS0_Ei(ptr noundef nonnull align 8 dereferenceable(12) %0, ptr noundef %1, i32 noundef %2) unnamed_addr #1 comdat align 2 {
  %4 = alloca ptr, align 8
  %5 = alloca ptr, align 8
  %6 = alloca i32, align 4
  store ptr %0, ptr %4, align 8
  store ptr %1, ptr %5, align 8
  store i32 %2, ptr %6, align 4
  %7 = load ptr, ptr %4, align 8
  %8 = getelementptr inbounds %class.GrowableArrayIterator.3, ptr %7, i32 0, i32 0
  %9 = load ptr, ptr %5, align 8
  store ptr %9, ptr %8, align 8
  %10 = getelementptr inbounds %class.GrowableArrayIterator.3, ptr %7, i32 0, i32 1
  %11 = load i32, ptr %6, align 4
  store i32 %11, ptr %10, align 8
  ret void
}

; Function Attrs: mustprogress nounwind uwtable
define linkonce_odr hidden noundef nonnull align 4 dereferenceable(4) ptr @_ZNK17GrowableArrayViewIjE2atEi(ptr noundef nonnull align 8 dereferenceable(16) %0, i32 noundef %1) #1 comdat align 2 {
  %3 = alloca ptr, align 8
  %4 = alloca i32, align 4
  store ptr %0, ptr %3, align 8
  store i32 %1, ptr %4, align 4
  %5 = load ptr, ptr %3, align 8
  %6 = getelementptr inbounds %class.GrowableArrayView, ptr %5, i32 0, i32 1
  %7 = load ptr, ptr %6, align 8
  %8 = load i32, ptr %4, align 4
  %9 = sext i32 %8 to i64
  %10 = getelementptr inbounds i32, ptr %7, i64 %9
  ret ptr %10
}

; Function Attrs: mustprogress nounwind uwtable
define linkonce_odr hidden void @_ZN21GrowableArrayIteratorIjEC2EPK17GrowableArrayViewIjEi(ptr noundef nonnull align 8 dereferenceable(12) %0, ptr noundef %1, i32 noundef %2) unnamed_addr #1 comdat align 2 {
  %4 = alloca ptr, align 8
  %5 = alloca ptr, align 8
  %6 = alloca i32, align 4
  store ptr %0, ptr %4, align 8
  store ptr %1, ptr %5, align 8
  store i32 %2, ptr %6, align 4
  %7 = load ptr, ptr %4, align 8
  %8 = getelementptr inbounds %class.GrowableArrayIterator, ptr %7, i32 0, i32 0
  %9 = load ptr, ptr %5, align 8
  store ptr %9, ptr %8, align 8
  %10 = getelementptr inbounds %class.GrowableArrayIterator, ptr %7, i32 0, i32 1
  %11 = load i32, ptr %6, align 4
  store i32 %11, ptr %10, align 8
  ret void
}

; Function Attrs: mustprogress nounwind uwtable
define linkonce_odr hidden noundef nonnull align 8 dereferenceable(12) ptr @_ZN21GrowableArrayIteratorI10WeakHandleEppEv(ptr noundef nonnull align 8 dereferenceable(12) %0) #1 comdat align 2 {
  %2 = alloca ptr, align 8
  store ptr %0, ptr %2, align 8
  %3 = load ptr, ptr %2, align 8
  %4 = getelementptr inbounds %class.GrowableArrayIterator.3, ptr %3, i32 0, i32 1
  %5 = load i32, ptr %4, align 8
  %6 = add nsw i32 %5, 1
  store i32 %6, ptr %4, align 8
  ret ptr %3
}

; Function Attrs: mustprogress nounwind uwtable
define linkonce_odr hidden noundef i64 @_Z3p2iPVKv(ptr noundef %0) #1 comdat {
  %2 = alloca ptr, align 8
  store ptr %0, ptr %2, align 8
  %3 = load ptr, ptr %2, align 8
  %4 = ptrtoint ptr %3 to i64
  ret i64 %4
}

; Function Attrs: mustprogress nounwind uwtable
define linkonce_odr hidden noundef ptr @_ZNK10WeakHandle7ptr_rawEv(ptr noundef nonnull align 8 dereferenceable(8) %0) #1 comdat align 2 {
  %2 = alloca ptr, align 8
  store ptr %0, ptr %2, align 8
  %3 = load ptr, ptr %2, align 8
  %4 = getelementptr inbounds %class.WeakHandle, ptr %3, i32 0, i32 0
  %5 = load ptr, ptr %4, align 8
  ret ptr %5
}

; Function Attrs: mustprogress nounwind uwtable
define linkonce_odr hidden noundef zeroext i1 @_ZNK10WeakHandle8is_emptyEv(ptr noundef nonnull align 8 dereferenceable(8) %0) #1 comdat align 2 {
  %2 = alloca ptr, align 8
  store ptr %0, ptr %2, align 8
  %3 = load ptr, ptr %2, align 8
  %4 = getelementptr inbounds %class.WeakHandle, ptr %3, i32 0, i32 0
  %5 = load ptr, ptr %4, align 8
  %6 = icmp eq ptr %5, null
  ret i1 %6
}

; Function Attrs: mustprogress nounwind uwtable
define linkonce_odr hidden ptr @_ZN21GrowableArrayIteratorI10WeakHandleEdeEv(ptr noundef nonnull align 8 dereferenceable(12) %0) #1 comdat align 2 {
  %2 = alloca %class.WeakHandle, align 8
  %3 = alloca ptr, align 8
  store ptr %0, ptr %3, align 8
  %4 = load ptr, ptr %3, align 8
  %5 = getelementptr inbounds %class.GrowableArrayIterator.3, ptr %4, i32 0, i32 0
  %6 = load ptr, ptr %5, align 8
  %7 = getelementptr inbounds %class.GrowableArrayIterator.3, ptr %4, i32 0, i32 1
  %8 = load i32, ptr %7, align 8
  %9 = call noundef nonnull align 8 dereferenceable(8) ptr @_ZNK17GrowableArrayViewI10WeakHandleE2atEi(ptr noundef nonnull align 8 dereferenceable(16) %6, i32 noundef %8)
  call void @llvm.memcpy.p0.p0.i64(ptr align 8 %2, ptr align 8 %9, i64 8, i1 false)
  %10 = getelementptr inbounds %class.WeakHandle, ptr %2, i32 0, i32 0
  %11 = load ptr, ptr %10, align 8
  ret ptr %11
}

; Function Attrs: mustprogress nounwind uwtable
define linkonce_odr hidden noundef zeroext i1 @_ZN21GrowableArrayIteratorI10WeakHandleEneERKS1_(ptr noundef nonnull align 8 dereferenceable(12) %0, ptr noundef nonnull align 8 dereferenceable(12) %1) #1 comdat align 2 {
  %3 = alloca ptr, align 8
  %4 = alloca ptr, align 8
  store ptr %0, ptr %3, align 8
  store ptr %1, ptr %4, align 8
  %5 = load ptr, ptr %3, align 8
  %6 = getelementptr inbounds %class.GrowableArrayIterator.3, ptr %5, i32 0, i32 1
  %7 = load i32, ptr %6, align 8
  %8 = load ptr, ptr %4, align 8
  %9 = getelementptr inbounds %class.GrowableArrayIterator.3, ptr %8, i32 0, i32 1
  %10 = load i32, ptr %9, align 8
  %11 = icmp ne i32 %7, %10
  ret i1 %11
}

; Function Attrs: mustprogress nounwind uwtable
define linkonce_odr hidden { ptr, i32 } @_ZNK17GrowableArrayViewI10WeakHandleE3endEv(ptr noundef nonnull align 8 dereferenceable(16) %0) #1 comdat align 2 {
  %2 = alloca %class.GrowableArrayIterator.3, align 8
  %3 = alloca ptr, align 8
  store ptr %0, ptr %3, align 8
  %4 = load ptr, ptr %3, align 8
  %5 = call noundef i32 @_ZNK17GrowableArrayBase6lengthEv(ptr noundef nonnull align 4 dereferenceable(8) %4)
  call void @_ZN21GrowableArrayIteratorI10WeakHandleEC2EPK17GrowableArrayViewIS0_Ei(ptr noundef nonnull align 8 dereferenceable(12) %2, ptr noundef %4, i32 noundef %5)
  %6 = load { ptr, i32 }, ptr %2, align 8
  ret { ptr, i32 } %6
}

; Function Attrs: mustprogress nounwind uwtable
define linkonce_odr hidden { ptr, i32 } @_ZNK17GrowableArrayViewI10WeakHandleE5beginEv(ptr noundef nonnull align 8 dereferenceable(16) %0) #1 comdat align 2 {
  %2 = alloca %class.GrowableArrayIterator.3, align 8
  %3 = alloca ptr, align 8
  store ptr %0, ptr %3, align 8
  %4 = load ptr, ptr %3, align 8
  call void @_ZN21GrowableArrayIteratorI10WeakHandleEC2EPK17GrowableArrayViewIS0_Ei(ptr noundef nonnull align 8 dereferenceable(12) %2, ptr noundef %4, i32 noundef 0)
  %5 = load { ptr, i32 }, ptr %2, align 8
  ret { ptr, i32 } %5
}

; Function Attrs: mustprogress nounwind uwtable
define linkonce_odr hidden noundef nonnull align 8 dereferenceable(12) ptr @_ZN21GrowableArrayIteratorIjEppEv(ptr noundef nonnull align 8 dereferenceable(12) %0) #1 comdat align 2 {
  %2 = alloca ptr, align 8
  store ptr %0, ptr %2, align 8
  %3 = load ptr, ptr %2, align 8
  %4 = getelementptr inbounds %class.GrowableArrayIterator, ptr %3, i32 0, i32 1
  %5 = load i32, ptr %4, align 8
  %6 = add nsw i32 %5, 1
  store i32 %6, ptr %4, align 8
  ret ptr %3
}

; Function Attrs: mustprogress nounwind uwtable
define linkonce_odr hidden noundef i32 @_ZN21GrowableArrayIteratorIjEdeEv(ptr noundef nonnull align 8 dereferenceable(12) %0) #1 comdat align 2 {
  %2 = alloca ptr, align 8
  store ptr %0, ptr %2, align 8
  %3 = load ptr, ptr %2, align 8
  %4 = getelementptr inbounds %class.GrowableArrayIterator, ptr %3, i32 0, i32 0
  %5 = load ptr, ptr %4, align 8
  %6 = getelementptr inbounds %class.GrowableArrayIterator, ptr %3, i32 0, i32 1
  %7 = load i32, ptr %6, align 8
  %8 = call noundef nonnull align 4 dereferenceable(4) ptr @_ZNK17GrowableArrayViewIjE2atEi(ptr noundef nonnull align 8 dereferenceable(16) %5, i32 noundef %7)
  %9 = load i32, ptr %8, align 4
  ret i32 %9
}

; Function Attrs: mustprogress nounwind uwtable
define linkonce_odr hidden noundef zeroext i1 @_ZN21GrowableArrayIteratorIjEneERKS0_(ptr noundef nonnull align 8 dereferenceable(12) %0, ptr noundef nonnull align 8 dereferenceable(12) %1) #1 comdat align 2 {
  %3 = alloca ptr, align 8
  %4 = alloca ptr, align 8
  store ptr %0, ptr %3, align 8
  store ptr %1, ptr %4, align 8
  %5 = load ptr, ptr %3, align 8
  %6 = getelementptr inbounds %class.GrowableArrayIterator, ptr %5, i32 0, i32 1
  %7 = load i32, ptr %6, align 8
  %8 = load ptr, ptr %4, align 8
  %9 = getelementptr inbounds %class.GrowableArrayIterator, ptr %8, i32 0, i32 1
  %10 = load i32, ptr %9, align 8
  %11 = icmp ne i32 %7, %10
  ret i1 %11
}

; Function Attrs: mustprogress nounwind uwtable
define linkonce_odr hidden { ptr, i32 } @_ZNK17GrowableArrayViewIjE3endEv(ptr noundef nonnull align 8 dereferenceable(16) %0) #1 comdat align 2 {
  %2 = alloca %class.GrowableArrayIterator, align 8
  %3 = alloca ptr, align 8
  store ptr %0, ptr %3, align 8
  %4 = load ptr, ptr %3, align 8
  %5 = call noundef i32 @_ZNK17GrowableArrayBase6lengthEv(ptr noundef nonnull align 4 dereferenceable(8) %4)
  call void @_ZN21GrowableArrayIteratorIjEC2EPK17GrowableArrayViewIjEi(ptr noundef nonnull align 8 dereferenceable(12) %2, ptr noundef %4, i32 noundef %5)
  %6 = load { ptr, i32 }, ptr %2, align 8
  ret { ptr, i32 } %6
}

; Function Attrs: mustprogress nounwind uwtable
define linkonce_odr hidden { ptr, i32 } @_ZNK17GrowableArrayViewIjE5beginEv(ptr noundef nonnull align 8 dereferenceable(16) %0) #1 comdat align 2 {
  %2 = alloca %class.GrowableArrayIterator, align 8
  %3 = alloca ptr, align 8
  store ptr %0, ptr %3, align 8
  %4 = load ptr, ptr %3, align 8
  call void @_ZN21GrowableArrayIteratorIjEC2EPK17GrowableArrayViewIjEi(ptr noundef nonnull align 8 dereferenceable(12) %2, ptr noundef %4, i32 noundef 0)
  %5 = load { ptr, i32 }, ptr %2, align 8
  ret { ptr, i32 } %5
}

; Function Attrs: mustprogress nounwind uwtable
define linkonce_odr hidden noundef i32 @_ZNK17GrowableArrayBase6lengthEv(ptr noundef nonnull align 4 dereferenceable(8) %0) #1 comdat align 2 {
  %2 = alloca ptr, align 8
  store ptr %0, ptr %2, align 8
  %3 = load ptr, ptr %2, align 8
  %4 = getelementptr inbounds %class.GrowableArrayBase, ptr %3, i32 0, i32 0
  %5 = load i32, ptr %4, align 4
  ret i32 %5
}

; Function Attrs: mustprogress nounwind uwtable
define hidden void @_ZNK11StringDedup5Table6Bucket6verifyEmm(ptr noundef nonnull align 8 dereferenceable(32) %0, i64 noundef %1, i64 noundef %2) #1 align 2 {
  %4 = alloca ptr, align 8
  %5 = alloca i64, align 8
  %6 = alloca i64, align 8
  %7 = alloca i32, align 4
  %8 = alloca ptr, align 8
  %9 = alloca %class.GrowableArrayIterator, align 8
  %10 = alloca %class.GrowableArrayIterator, align 8
  %11 = alloca i32, align 4
  %12 = alloca i64, align 8
  %13 = alloca i64, align 8
  %14 = alloca ptr, align 8
  %15 = alloca %class.GrowableArrayIterator.3, align 8
  %16 = alloca %class.GrowableArrayIterator.3, align 8
  %17 = alloca %class.WeakHandle, align 8
  %18 = alloca ptr, align 8
  %19 = alloca i32, align 4
  store ptr %0, ptr %4, align 8
  store i64 %1, ptr %5, align 8
  store i64 %2, ptr %6, align 8
  %20 = load ptr, ptr %4, align 8
  %21 = getelementptr inbounds %"class.StringDedup::Table::Bucket", ptr %20, i32 0, i32 0
  %22 = call noundef i32 @_ZNK17GrowableArrayBase6lengthEv(ptr noundef nonnull align 4 dereferenceable(8) %21)
  store i32 %22, ptr %7, align 4
  br label %23

23:                                               ; preds = %3
  %24 = load i32, ptr %7, align 4
  %25 = getelementptr inbounds %"class.StringDedup::Table::Bucket", ptr %20, i32 0, i32 1
  %26 = call noundef i32 @_ZNK17GrowableArrayBase6lengthEv(ptr noundef nonnull align 4 dereferenceable(8) %25)
  %27 = icmp eq i32 %24, %26
  br i1 %27, label %34, label %28

28:                                               ; preds = %23
  %29 = load ptr, ptr @g_assert_poison, align 8
  store i8 88, ptr %29, align 1
  %30 = load i64, ptr %5, align 8
  %31 = load i32, ptr %7, align 4
  %32 = getelementptr inbounds %"class.StringDedup::Table::Bucket", ptr %20, i32 0, i32 1
  %33 = call noundef i32 @_ZNK17GrowableArrayBase6lengthEv(ptr noundef nonnull align 4 dereferenceable(8) %32)
  call void (ptr, i32, ptr, ptr, ...) @_Z15report_vm_errorPKciS0_S0_z(ptr noundef @.str, i32 noundef 187, ptr noundef @.str.4, ptr noundef @.str.5, i64 noundef %30, i32 noundef %31, i32 noundef %33) #11
  unreachable

34:                                               ; preds = %23
  br label %35

35:                                               ; preds = %34
  %36 = getelementptr inbounds %"class.StringDedup::Table::Bucket", ptr %20, i32 0, i32 0
  store ptr %36, ptr %8, align 8
  %37 = load ptr, ptr %8, align 8
  %38 = call { ptr, i32 } @_ZNK17GrowableArrayViewIjE5beginEv(ptr noundef nonnull align 8 dereferenceable(16) %37)
  %39 = getelementptr inbounds { ptr, i32 }, ptr %9, i32 0, i32 0
  %40 = extractvalue { ptr, i32 } %38, 0
  store ptr %40, ptr %39, align 8
  %41 = getelementptr inbounds { ptr, i32 }, ptr %9, i32 0, i32 1
  %42 = extractvalue { ptr, i32 } %38, 1
  store i32 %42, ptr %41, align 8
  %43 = load ptr, ptr %8, align 8
  %44 = call { ptr, i32 } @_ZNK17GrowableArrayViewIjE3endEv(ptr noundef nonnull align 8 dereferenceable(16) %43)
  %45 = getelementptr inbounds { ptr, i32 }, ptr %10, i32 0, i32 0
  %46 = extractvalue { ptr, i32 } %44, 0
  store ptr %46, ptr %45, align 8
  %47 = getelementptr inbounds { ptr, i32 }, ptr %10, i32 0, i32 1
  %48 = extractvalue { ptr, i32 } %44, 1
  store i32 %48, ptr %47, align 8
  br label %49

49:                                               ; preds = %67, %35
  %50 = call noundef zeroext i1 @_ZN21GrowableArrayIteratorIjEneERKS0_(ptr noundef nonnull align 8 dereferenceable(12) %9, ptr noundef nonnull align 8 dereferenceable(12) %10)
  br i1 %50, label %51, label %69

51:                                               ; preds = %49
  %52 = call noundef i32 @_ZN21GrowableArrayIteratorIjEdeEv(ptr noundef nonnull align 8 dereferenceable(12) %9)
  store i32 %52, ptr %11, align 4
  %53 = load i32, ptr %11, align 4
  %54 = zext i32 %53 to i64
  %55 = load i64, ptr %6, align 8
  %56 = urem i64 %54, %55
  store i64 %56, ptr %12, align 8
  br label %57

57:                                               ; preds = %51
  %58 = load i64, ptr %5, align 8
  %59 = load i64, ptr %12, align 8
  %60 = icmp eq i64 %58, %59
  br i1 %60, label %65, label %61

61:                                               ; preds = %57
  %62 = load ptr, ptr @g_assert_poison, align 8
  store i8 88, ptr %62, align 1
  %63 = load i64, ptr %5, align 8
  %64 = load i32, ptr %11, align 4
  call void (ptr, i32, ptr, ptr, ...) @_Z15report_vm_errorPKciS0_S0_z(ptr noundef @.str, i32 noundef 191, ptr noundef @.str.6, ptr noundef @.str.7, i64 noundef %63, i32 noundef %64) #11
  unreachable

65:                                               ; preds = %57
  br label %66

66:                                               ; preds = %65
  br label %67

67:                                               ; preds = %66
  %68 = call noundef nonnull align 8 dereferenceable(12) ptr @_ZN21GrowableArrayIteratorIjEppEv(ptr noundef nonnull align 8 dereferenceable(12) %9)
  br label %49

69:                                               ; preds = %49
  store i64 0, ptr %13, align 8
  %70 = getelementptr inbounds %"class.StringDedup::Table::Bucket", ptr %20, i32 0, i32 1
  store ptr %70, ptr %14, align 8
  %71 = load ptr, ptr %14, align 8
  %72 = call { ptr, i32 } @_ZNK17GrowableArrayViewI10WeakHandleE5beginEv(ptr noundef nonnull align 8 dereferenceable(16) %71)
  %73 = getelementptr inbounds { ptr, i32 }, ptr %15, i32 0, i32 0
  %74 = extractvalue { ptr, i32 } %72, 0
  store ptr %74, ptr %73, align 8
  %75 = getelementptr inbounds { ptr, i32 }, ptr %15, i32 0, i32 1
  %76 = extractvalue { ptr, i32 } %72, 1
  store i32 %76, ptr %75, align 8
  %77 = load ptr, ptr %14, align 8
  %78 = call { ptr, i32 } @_ZNK17GrowableArrayViewI10WeakHandleE3endEv(ptr noundef nonnull align 8 dereferenceable(16) %77)
  %79 = getelementptr inbounds { ptr, i32 }, ptr %16, i32 0, i32 0
  %80 = extractvalue { ptr, i32 } %78, 0
  store ptr %80, ptr %79, align 8
  %81 = getelementptr inbounds { ptr, i32 }, ptr %16, i32 0, i32 1
  %82 = extractvalue { ptr, i32 } %78, 1
  store i32 %82, ptr %81, align 8
  br label %83

83:                                               ; preds = %113, %69
  %84 = call noundef zeroext i1 @_ZN21GrowableArrayIteratorI10WeakHandleEneERKS1_(ptr noundef nonnull align 8 dereferenceable(12) %15, ptr noundef nonnull align 8 dereferenceable(12) %16)
  br i1 %84, label %85, label %115

85:                                               ; preds = %83
  %86 = call ptr @_ZN21GrowableArrayIteratorI10WeakHandleEdeEv(ptr noundef nonnull align 8 dereferenceable(12) %15)
  %87 = getelementptr inbounds %class.WeakHandle, ptr %17, i32 0, i32 0
  store ptr %86, ptr %87, align 8
  br label %88

88:                                               ; preds = %85
  %89 = call noundef zeroext i1 @_ZNK10WeakHandle8is_emptyEv(ptr noundef nonnull align 8 dereferenceable(8) %17)
  br i1 %89, label %90, label %94

90:                                               ; preds = %88
  %91 = load ptr, ptr @g_assert_poison, align 8
  store i8 88, ptr %91, align 1
  %92 = load i64, ptr %5, align 8
  %93 = load i64, ptr %13, align 8
  call void (ptr, i32, ptr, ptr, ...) @_Z15report_vm_errorPKciS0_S0_z(ptr noundef @.str, i32 noundef 195, ptr noundef @.str.8, ptr noundef @.str.9, i64 noundef %92, i64 noundef %93) #11
  unreachable

94:                                               ; preds = %88
  br label %95

95:                                               ; preds = %94
  %96 = call noundef ptr @_ZNK10WeakHandle7ptr_rawEv(ptr noundef nonnull align 8 dereferenceable(8) %17)
  store ptr %96, ptr %18, align 8
  %97 = load ptr, ptr @_ZN11StringDedup5Table14_table_storageE, align 8
  %98 = load ptr, ptr %18, align 8
  %99 = call noundef i32 @_ZNK10OopStorage17allocation_statusEPKP7oopDesc(ptr noundef nonnull align 8 dereferenceable(126) %97, ptr noundef %98)
  store i32 %99, ptr %19, align 4
  br label %100

100:                                              ; preds = %95
  %101 = load i32, ptr %19, align 4
  %102 = icmp eq i32 2, %101
  br i1 %102, label %109, label %103

103:                                              ; preds = %100
  %104 = load ptr, ptr @g_assert_poison, align 8
  store i8 88, ptr %104, align 1
  %105 = load i64, ptr %5, align 8
  %106 = load i64, ptr %13, align 8
  %107 = load ptr, ptr %18, align 8
  %108 = call noundef i64 @_Z3p2iPVKv(ptr noundef %107)
  call void (ptr, i32, ptr, ptr, ...) @_Z15report_vm_errorPKciS0_S0_z(ptr noundef @.str, i32 noundef 199, ptr noundef @.str.10, ptr noundef @.str.11, i64 noundef %105, i64 noundef %106, i64 noundef %108) #11
  unreachable

109:                                              ; preds = %100
  br label %110

110:                                              ; preds = %109
  %111 = load i64, ptr %13, align 8
  %112 = add i64 %111, 1
  store i64 %112, ptr %13, align 8
  br label %113

113:                                              ; preds = %110
  %114 = call noundef nonnull align 8 dereferenceable(12) ptr @_ZN21GrowableArrayIteratorI10WeakHandleEppEv(ptr noundef nonnull align 8 dereferenceable(12) %15)
  br label %83

115:                                              ; preds = %83
  ret void
}