; Function Attrs: mustprogress nounwind uwtable
define hidden void @_ZNK11StringDedup5Table6Bucket6verifyEmm(ptr nocapture noundef nonnull readonly align 8 dereferenceable(32) %0, i64 noundef %1, i64 noundef %2) local_unnamed_addr #0 align 2 {
  %4 = load i32, ptr %0, align 8
  %5 = getelementptr inbounds i8, ptr %0, i64 16
  %6 = load i32, ptr %5, align 8
  %7 = icmp eq i32 %4, %6
  br i1 %7, label %.preheader41, label %11

.preheader41:                                     ; preds = %3
  %.not45 = icmp eq i32 %4, 0
  br i1 %.not45, label %._crit_edge, label %.lr.ph

.lr.ph:                                           ; preds = %.preheader41
  %8 = getelementptr inbounds i8, ptr %0, i64 8
  %9 = load ptr, ptr %8, align 8
  %10 = zext i32 %4 to i64
  br label %17

11:                                               ; preds = %3
  %12 = load ptr, ptr @g_assert_poison, align 8
  store i8 88, ptr %12, align 1
  %13 = load i32, ptr %5, align 8
  tail call void (ptr, i32, ptr, ptr, ...) @_Z15report_vm_errorPKciS0_S0_z(ptr noundef nonnull @.str, i32 noundef 187, ptr noundef nonnull @.str.4, ptr noundef nonnull @.str.5, i64 noundef %1, i32 noundef %4, i32 noundef %13) #14
  unreachable

14:                                               ; preds = %17
  %indvars.iv.next = add nuw nsw i64 %indvars.iv, 1
  %.not = icmp eq i64 %indvars.iv.next, %10
  br i1 %.not, label %.preheader, label %17

.preheader:                                       ; preds = %14
  br i1 %.not45, label %._crit_edge, label %.lr.ph50

.lr.ph50:                                         ; preds = %.preheader
  %15 = getelementptr inbounds i8, ptr %0, i64 24
  %16 = zext i32 %4 to i64
  br label %25

17:                                               ; preds = %.lr.ph, %14
  %indvars.iv = phi i64 [ 0, %.lr.ph ], [ %indvars.iv.next, %14 ]
  %18 = getelementptr inbounds i32, ptr %9, i64 %indvars.iv
  %19 = load i32, ptr %18, align 4
  %20 = zext i32 %19 to i64
  %21 = urem i64 %20, %2
  %22 = icmp eq i64 %21, %1
  br i1 %22, label %14, label %23

23:                                               ; preds = %17
  %24 = load ptr, ptr @g_assert_poison, align 8
  store i8 88, ptr %24, align 1
  tail call void (ptr, i32, ptr, ptr, ...) @_Z15report_vm_errorPKciS0_S0_z(ptr noundef nonnull @.str, i32 noundef 191, ptr noundef nonnull @.str.6, ptr noundef nonnull @.str.7, i64 noundef %1, i32 noundef %19) #14
  unreachable

25:                                               ; preds = %.lr.ph50, %38
  %.049 = phi i64 [ 0, %.lr.ph50 ], [ %39, %38 ]
  %26 = load ptr, ptr %15, align 8
  %27 = getelementptr inbounds %class.WeakHandle, ptr %26, i64 %.049
  %.sroa.0.0.copyload.i = load ptr, ptr %27, align 8
  %28 = icmp eq ptr %.sroa.0.0.copyload.i, null
  br i1 %28, label %29, label %31

29:                                               ; preds = %25
  %30 = load ptr, ptr @g_assert_poison, align 8
  store i8 88, ptr %30, align 1
  tail call void (ptr, i32, ptr, ptr, ...) @_Z15report_vm_errorPKciS0_S0_z(ptr noundef nonnull @.str, i32 noundef 195, ptr noundef nonnull @.str.8, ptr noundef nonnull @.str.9, i64 noundef %1, i64 noundef %.049) #14
  unreachable

31:                                               ; preds = %25
  %32 = load ptr, ptr @_ZN11StringDedup5Table14_table_storageE, align 8
  %33 = tail call noundef i32 @_ZNK10OopStorage17allocation_statusEPKP7oopDesc(ptr noundef nonnull align 8 dereferenceable(126) %32, ptr noundef nonnull %.sroa.0.0.copyload.i) #13
  %34 = icmp eq i32 %33, 2
  br i1 %34, label %38, label %35

35:                                               ; preds = %31
  %36 = load ptr, ptr @g_assert_poison, align 8
  store i8 88, ptr %36, align 1
  %37 = ptrtoint ptr %.sroa.0.0.copyload.i to i64
  tail call void (ptr, i32, ptr, ptr, ...) @_Z15report_vm_errorPKciS0_S0_z(ptr noundef nonnull @.str, i32 noundef 199, ptr noundef nonnull @.str.10, ptr noundef nonnull @.str.11, i64 noundef %1, i64 noundef %.049, i64 noundef %37) #14
  unreachable

38:                                               ; preds = %31
  %39 = add nuw nsw i64 %.049, 1
  %.not40 = icmp eq i64 %39, %16
  br i1 %.not40, label %._crit_edge, label %25

._crit_edge:                                      ; preds = %38, %.preheader41, %.preheader
  ret void
}